target datalayout = "e-m:e-p270:32:32-p271:32:32-p272:64:64-i64:64-i128:128-f80:128-n8:16:32:64-S128"
target triple = "x86_64-unknown-linux-gnu"

; Function Attrs: mustprogress uwtable
define dso_local void @_ZN6google8protobuf29BinaryAndJsonConformanceSuite25RunBinaryPerformanceTestsEv(ptr noundef nonnull align 8 dereferenceable(440) %this) #4 align 2 {
entry:
  %this.addr = alloca ptr, align 8
  store ptr %this, ptr %this.addr, align 8
  %this1 = load ptr, ptr %this.addr, align 8
  call void @_ZN6google8protobuf29BinaryAndJsonConformanceSuite48TestBinaryPerformanceForAlternatingUnknownFieldsEv(ptr noundef nonnull align 8 dereferenceable(440) %this1)
  call void @_ZN6google8protobuf29BinaryAndJsonConformanceSuite57TestBinaryPerformanceMergeMessageWithRepeatedFieldForTypeENS0_15FieldDescriptor4TypeE(ptr noundef nonnull align 8 dereferenceable(440) %this1, i32 noundef 8)
  call void @_ZN6google8protobuf29BinaryAndJsonConformanceSuite57TestBinaryPerformanceMergeMessageWithRepeatedFieldForTypeENS0_15FieldDescriptor4TypeE(ptr noundef nonnull align 8 dereferenceable(440) %this1, i32 noundef 1)
  call void @_ZN6google8protobuf29BinaryAndJsonConformanceSuite57TestBinaryPerformanceMergeMessageWithRepeatedFieldForTypeENS0_15FieldDescriptor4TypeE(ptr noundef nonnull align 8 dereferenceable(440) %this1, i32 noundef 2)
  call void @_ZN6google8protobuf29BinaryAndJsonConformanceSuite57TestBinaryPerformanceMergeMessageWithRepeatedFieldForTypeENS0_15FieldDescriptor4TypeE(ptr noundef nonnull align 8 dereferenceable(440) %this1, i32 noundef 13)
  call void @_ZN6google8protobuf29BinaryAndJsonConformanceSuite57TestBinaryPerformanceMergeMessageWithRepeatedFieldForTypeENS0_15FieldDescriptor4TypeE(ptr noundef nonnull align 8 dereferenceable(440) %this1, i32 noundef 4)
  call void @_ZN6google8protobuf29BinaryAndJsonConformanceSuite57TestBinaryPerformanceMergeMessageWithRepeatedFieldForTypeENS0_15FieldDescriptor4TypeE(ptr noundef nonnull align 8 dereferenceable(440) %this1, i32 noundef 9)
  call void @_ZN6google8protobuf29BinaryAndJsonConformanceSuite57TestBinaryPerformanceMergeMessageWithRepeatedFieldForTypeENS0_15FieldDescriptor4TypeE(ptr noundef nonnull align 8 dereferenceable(440) %this1, i32 noundef 12)
  call void @_ZN6google8protobuf29BinaryAndJsonConformanceSuite56TestBinaryPerformanceMergeMessageWithUnknownFieldForTypeENS0_15FieldDescriptor4TypeE(ptr noundef nonnull align 8 dereferenceable(440) %this1, i32 noundef 8)
  call void @_ZN6google8protobuf29BinaryAndJsonConformanceSuite56TestBinaryPerformanceMergeMessageWithUnknownFieldForTypeENS0_15FieldDescriptor4TypeE(ptr noundef nonnull align 8 dereferenceable(440) %this1, i32 noundef 1)
  call void @_ZN6google8protobuf29BinaryAndJsonConformanceSuite56TestBinaryPerformanceMergeMessageWithUnknownFieldForTypeENS0_15FieldDescriptor4TypeE(ptr noundef nonnull align 8 dereferenceable(440) %this1, i32 noundef 2)
  call void @_ZN6google8protobuf29BinaryAndJsonConformanceSuite56TestBinaryPerformanceMergeMessageWithUnknownFieldForTypeENS0_15FieldDescriptor4TypeE(ptr noundef nonnull align 8 dereferenceable(440) %this1, i32 noundef 13)
  call void @_ZN6google8protobuf29BinaryAndJsonConformanceSuite56TestBinaryPerformanceMergeMessageWithUnknownFieldForTypeENS0_15FieldDescriptor4TypeE(ptr noundef nonnull align 8 dereferenceable(440) %this1, i32 noundef 4)
  call void @_ZN6google8protobuf29BinaryAndJsonConformanceSuite56TestBinaryPerformanceMergeMessageWithUnknownFieldForTypeENS0_15FieldDescriptor4TypeE(ptr noundef nonnull align 8 dereferenceable(440) %this1, i32 noundef 9)
  call void @_ZN6google8protobuf29BinaryAndJsonConformanceSuite56TestBinaryPerformanceMergeMessageWithUnknownFieldForTypeENS0_15FieldDescriptor4TypeE(ptr noundef nonnull align 8 dereferenceable(440) %this1, i32 noundef 12)
  ret void
}