; Function Attrs: mustprogress uwtable
define dso_local void @_ZN6google8protobuf29BinaryAndJsonConformanceSuite25RunBinaryPerformanceTestsEv(ptr noundef nonnull align 8 dereferenceable(440) %this) local_unnamed_addr #3 align 2 {
entry:
  tail call void @_ZN6google8protobuf29BinaryAndJsonConformanceSuite48TestBinaryPerformanceForAlternatingUnknownFieldsEv(ptr noundef nonnull align 8 dereferenceable(440) %this)
  tail call void @_ZN6google8protobuf29BinaryAndJsonConformanceSuite57TestBinaryPerformanceMergeMessageWithRepeatedFieldForTypeENS0_15FieldDescriptor4TypeE(ptr noundef nonnull align 8 dereferenceable(440) %this, i32 noundef 8)
  tail call void @_ZN6google8protobuf29BinaryAndJsonConformanceSuite57TestBinaryPerformanceMergeMessageWithRepeatedFieldForTypeENS0_15FieldDescriptor4TypeE(ptr noundef nonnull align 8 dereferenceable(440) %this, i32 noundef 1)
  tail call void @_ZN6google8protobuf29BinaryAndJsonConformanceSuite57TestBinaryPerformanceMergeMessageWithRepeatedFieldForTypeENS0_15FieldDescriptor4TypeE(ptr noundef nonnull align 8 dereferenceable(440) %this, i32 noundef 2)
  tail call void @_ZN6google8protobuf29BinaryAndJsonConformanceSuite57TestBinaryPerformanceMergeMessageWithRepeatedFieldForTypeENS0_15FieldDescriptor4TypeE(ptr noundef nonnull align 8 dereferenceable(440) %this, i32 noundef 13)
  tail call void @_ZN6google8protobuf29BinaryAndJsonConformanceSuite57TestBinaryPerformanceMergeMessageWithRepeatedFieldForTypeENS0_15FieldDescriptor4TypeE(ptr noundef nonnull align 8 dereferenceable(440) %this, i32 noundef 4)
  tail call void @_ZN6google8protobuf29BinaryAndJsonConformanceSuite57TestBinaryPerformanceMergeMessageWithRepeatedFieldForTypeENS0_15FieldDescriptor4TypeE(ptr noundef nonnull align 8 dereferenceable(440) %this, i32 noundef 9)
  tail call void @_ZN6google8protobuf29BinaryAndJsonConformanceSuite57TestBinaryPerformanceMergeMessageWithRepeatedFieldForTypeENS0_15FieldDescriptor4TypeE(ptr noundef nonnull align 8 dereferenceable(440) %this, i32 noundef 12)
  tail call void @_ZN6google8protobuf29BinaryAndJsonConformanceSuite56TestBinaryPerformanceMergeMessageWithUnknownFieldForTypeENS0_15FieldDescriptor4TypeE(ptr noundef nonnull align 8 dereferenceable(440) %this, i32 noundef 8)
  tail call void @_ZN6google8protobuf29BinaryAndJsonConformanceSuite56TestBinaryPerformanceMergeMessageWithUnknownFieldForTypeENS0_15FieldDescriptor4TypeE(ptr noundef nonnull align 8 dereferenceable(440) %this, i32 noundef 1)
  tail call void @_ZN6google8protobuf29BinaryAndJsonConformanceSuite56TestBinaryPerformanceMergeMessageWithUnknownFieldForTypeENS0_15FieldDescriptor4TypeE(ptr noundef nonnull align 8 dereferenceable(440) %this, i32 noundef 2)
  tail call void @_ZN6google8protobuf29BinaryAndJsonConformanceSuite56TestBinaryPerformanceMergeMessageWithUnknownFieldForTypeENS0_15FieldDescriptor4TypeE(ptr noundef nonnull align 8 dereferenceable(440) %this, i32 noundef 13)
  tail call void @_ZN6google8protobuf29BinaryAndJsonConformanceSuite56TestBinaryPerformanceMergeMessageWithUnknownFieldForTypeENS0_15FieldDescriptor4TypeE(ptr noundef nonnull align 8 dereferenceable(440) %this, i32 noundef 4)
  tail call void @_ZN6google8protobuf29BinaryAndJsonConformanceSuite56TestBinaryPerformanceMergeMessageWithUnknownFieldForTypeENS0_15FieldDescriptor4TypeE(ptr noundef nonnull align 8 dereferenceable(440) %this, i32 noundef 9)
  tail call void @_ZN6google8protobuf29BinaryAndJsonConformanceSuite56TestBinaryPerformanceMergeMessageWithUnknownFieldForTypeENS0_15FieldDescriptor4TypeE(ptr noundef nonnull align 8 dereferenceable(440) %this, i32 noundef 12)
  ret void
}